; Function Attrs: mustprogress nounwind sspstrong willreturn uwtable
define void @_ZN4FLAC8Metadata13VorbisComment5Entry13compose_fieldEv(ptr nocapture noundef nonnull align 8 dereferenceable(60) %this) local_unnamed_addr #14 align 2 {
entry:
  %entry2.i = getelementptr inbounds i8, ptr %this, i64 24
  %0 = load ptr, ptr %entry2.i, align 8
  %cmp.not.i = icmp eq ptr %0, null
  br i1 %cmp.not.i, label %_ZN4FLAC8Metadata13VorbisComment5Entry11clear_entryEv.exit, label %if.then.i

if.then.i:                                        ; preds = %entry
  %entry_.i = getelementptr inbounds i8, ptr %this, i64 16
  tail call void @free(ptr noundef nonnull %0) #20
  store i32 0, ptr %entry_.i, align 8
  br label %_ZN4FLAC8Metadata13VorbisComment5Entry11clear_entryEv.exit

_ZN4FLAC8Metadata13VorbisComment5Entry11clear_entryEv.exit: ; preds = %entry, %if.then.i
  %field_name_length_ = getelementptr inbounds i8, ptr %this, i64 40
  %1 = load i32, ptr %field_name_length_, align 8
  %conv = zext i32 %1 to i64
  %field_value_length_ = getelementptr inbounds i8, ptr %this, i64 56
  %2 = load i32, ptr %field_value_length_, align 8
  %conv2 = zext i32 %2 to i64
  %add1.i = add nuw nsw i64 %conv, 2
  %add5.i = add nuw nsw i64 %add1.i, %conv2
  %call.i.i = tail call noalias noundef ptr @malloc(i64 noundef %add5.i) #23
  %entry_ = getelementptr inbounds i8, ptr %this, i64 16
  store ptr %call.i.i, ptr %entry2.i, align 8
  %cmp = icmp eq ptr %call.i.i, null
  br i1 %cmp, label %if.end37, label %if.else

if.else:                                          ; preds = %_ZN4FLAC8Metadata13VorbisComment5Entry11clear_entryEv.exit
  %field_name_ = getelementptr inbounds i8, ptr %this, i64 32
  %3 = load ptr, ptr %field_name_, align 8
  tail call void @llvm.memcpy.p0.p0.i64(ptr nonnull align 1 %call.i.i, ptr align 1 %3, i64 %conv, i1 false)
  %4 = load i32, ptr %entry_, align 8
  %add = add i32 %4, %1
  %idx.ext = zext i32 %add to i64
  %add.ptr = getelementptr inbounds i8, ptr %call.i.i, i64 %idx.ext
  store i8 61, ptr %add.ptr, align 1
  %add16 = add i32 %add, 1
  store i32 %add16, ptr %entry_, align 8
  %cmp18.not = icmp eq i32 %2, 0
  br i1 %cmp18.not, label %if.end, label %if.then19

if.then19:                                        ; preds = %if.else
  %idx.ext24 = zext i32 %add16 to i64
  %add.ptr25 = getelementptr inbounds i8, ptr %call.i.i, i64 %idx.ext24
  %field_value_ = getelementptr inbounds i8, ptr %this, i64 48
  %5 = load ptr, ptr %field_value_, align 8
  tail call void @llvm.memcpy.p0.p0.i64(ptr nonnull align 1 %add.ptr25, ptr align 1 %5, i64 %conv2, i1 false)
  br label %if.end

if.end:                                           ; preds = %if.then19, %if.else
  %add31 = add i32 %add16, %2
  store i32 %add31, ptr %entry_, align 8
  %idxprom = zext i32 %add31 to i64
  %arrayidx = getelementptr inbounds i8, ptr %call.i.i, i64 %idxprom
  store i8 0, ptr %arrayidx, align 1
  br label %if.end37

if.end37:                                         ; preds = %_ZN4FLAC8Metadata13VorbisComment5Entry11clear_entryEv.exit, %if.end
  %.sink = phi i8 [ 1, %if.end ], [ 0, %_ZN4FLAC8Metadata13VorbisComment5Entry11clear_entryEv.exit ]
  %is_valid_36 = getelementptr inbounds i8, ptr %this, i64 8
  store i8 %.sink, ptr %is_valid_36, align 8
  ret void
}